target datalayout = "e-m:e-p270:32:32-p271:32:32-p272:64:64-i64:64-i128:128-f80:128-n8:16:32:64-S128"
target triple = "x86_64-pc-linux-gnu"

%"class.icu_77::UObject" = type { ptr }
%"class.icu_77::StringTrieBuilder::Node" = type { %"class.icu_77::UObject", i32, i32 }
%"class.icu_77::StringTrieBuilder::ListBranchNode" = type <{ %"class.icu_77::StringTrieBuilder::BranchNode.base", [4 x i8], [5 x ptr], i32, [5 x i32], [5 x i16], [6 x i8] }>
%"class.icu_77::StringTrieBuilder::BranchNode.base" = type <{ %"class.icu_77::StringTrieBuilder::Node", i32 }>
%"class.icu_77::StringTrieBuilder::BranchNode" = type <{ %"class.icu_77::StringTrieBuilder::Node", i32, [4 x i8] }>

; Function Attrs: mustprogress uwtable
define noundef i32 @_ZN6icu_7717StringTrieBuilder14ListBranchNode19markRightEdgesFirstEi(ptr noundef nonnull align 8 dereferenceable(98) %0, i32 noundef %1) unnamed_addr #2 align 2 {
  %3 = alloca ptr, align 8
  %4 = alloca i32, align 4
  %5 = alloca i32, align 4
  %6 = alloca i32, align 4
  %7 = alloca ptr, align 8
  store ptr %0, ptr %3, align 8, !tbaa !39
  store i32 %1, ptr %4, align 4, !tbaa !16
  %8 = load ptr, ptr %3, align 8
  %9 = getelementptr inbounds nuw %"class.icu_77::StringTrieBuilder::Node", ptr %8, i32 0, i32 2
  %10 = load i32, ptr %9, align 4, !tbaa !77
  %11 = icmp eq i32 %10, 0
  br i1 %11, label %12, label %42

12:                                               ; preds = %2
  %13 = load i32, ptr %4, align 4, !tbaa !16
  %14 = getelementptr inbounds nuw %"class.icu_77::StringTrieBuilder::BranchNode", ptr %8, i32 0, i32 1
  store i32 %13, ptr %14, align 8, !tbaa !84
  call void @llvm.lifetime.start.p0(i64 4, ptr %5) #9
  store i32 0, ptr %5, align 4, !tbaa !16
  call void @llvm.lifetime.start.p0(i64 4, ptr %6) #9
  %15 = getelementptr inbounds nuw %"class.icu_77::StringTrieBuilder::ListBranchNode", ptr %8, i32 0, i32 3
  %16 = load i32, ptr %15, align 8, !tbaa !59
  store i32 %16, ptr %6, align 4, !tbaa !16
  br label %17

17:                                               ; preds = %36, %12
  call void @llvm.lifetime.start.p0(i64 8, ptr %7) #9
  %18 = getelementptr inbounds nuw %"class.icu_77::StringTrieBuilder::ListBranchNode", ptr %8, i32 0, i32 2
  %19 = load i32, ptr %6, align 4, !tbaa !16
  %20 = add nsw i32 %19, -1
  store i32 %20, ptr %6, align 4, !tbaa !16
  %21 = sext i32 %20 to i64
  %22 = getelementptr inbounds [5 x ptr], ptr %18, i64 0, i64 %21
  %23 = load ptr, ptr %22, align 8, !tbaa !24
  store ptr %23, ptr %7, align 8, !tbaa !24
  %24 = load ptr, ptr %7, align 8, !tbaa !24
  %25 = icmp ne ptr %24, null
  br i1 %25, label %26, label %35

26:                                               ; preds = %17
  %27 = load ptr, ptr %7, align 8, !tbaa !24
  %28 = load i32, ptr %4, align 4, !tbaa !16
  %29 = load i32, ptr %5, align 4, !tbaa !16
  %30 = sub nsw i32 %28, %29
  %31 = load ptr, ptr %27, align 8, !tbaa !8
  %32 = getelementptr inbounds ptr, ptr %31, i64 4
  %33 = load ptr, ptr %32, align 8
  %34 = call noundef i32 %33(ptr noundef nonnull align 8 dereferenceable(16) %27, i32 noundef %30)
  store i32 %34, ptr %4, align 4, !tbaa !16
  br label %35

35:                                               ; preds = %26, %17
  store i32 1, ptr %5, align 4, !tbaa !16
  call void @llvm.lifetime.end.p0(i64 8, ptr %7) #9
  br label %36

36:                                               ; preds = %35
  %37 = load i32, ptr %6, align 4, !tbaa !16
  %38 = icmp sgt i32 %37, 0
  br i1 %38, label %17, label %39, !llvm.loop !85

39:                                               ; preds = %36
  %40 = load i32, ptr %4, align 4, !tbaa !16
  %41 = getelementptr inbounds nuw %"class.icu_77::StringTrieBuilder::Node", ptr %8, i32 0, i32 2
  store i32 %40, ptr %41, align 4, !tbaa !77
  call void @llvm.lifetime.end.p0(i64 4, ptr %6) #9
  call void @llvm.lifetime.end.p0(i64 4, ptr %5) #9
  br label %42

42:                                               ; preds = %39, %2
  %43 = load i32, ptr %4, align 4, !tbaa !16
  ret i32 %43
}