; Function Attrs: mustprogress uwtable
define noundef i32 @_ZN6icu_7717StringTrieBuilder14ListBranchNode19markRightEdgesFirstEi(ptr noundef nonnull align 8 captures(none) dereferenceable(98) %0, i32 noundef %1) unnamed_addr #2 align 2 {
  %3 = getelementptr inbounds nuw i8, ptr %0, i64 12
  %4 = load i32, ptr %3, align 4, !tbaa !21
  %5 = icmp eq i32 %4, 0
  br i1 %5, label %6, label %24

6:                                                ; preds = %2
  %7 = getelementptr inbounds nuw i8, ptr %0, i64 16
  store i32 %1, ptr %7, align 8, !tbaa !59
  %8 = getelementptr inbounds nuw i8, ptr %0, i64 64
  %9 = load i32, ptr %8, align 8, !tbaa !43
  %10 = getelementptr inbounds nuw i8, ptr %0, i64 24
  %11 = sext i32 %9 to i64
  br label %12

12:                                               ; preds = %21, %6
  %indvars.iv = phi i64 [ %indvars.iv.next, %21 ], [ %11, %6 ]
  %.010 = phi i32 [ 1, %21 ], [ 0, %6 ]
  %.1 = phi i32 [ %.2, %21 ], [ %1, %6 ]
  %indvars.iv.next = add nsw i64 %indvars.iv, -1
  %13 = getelementptr inbounds [5 x ptr], ptr %10, i64 0, i64 %indvars.iv.next
  %14 = load ptr, ptr %13, align 8, !tbaa !41
  %.not = icmp eq ptr %14, null
  br i1 %.not, label %21, label %15

15:                                               ; preds = %12
  %16 = sub nsw i32 %.1, %.010
  %17 = load ptr, ptr %14, align 8, !tbaa !3
  %18 = getelementptr inbounds nuw i8, ptr %17, i64 32
  %19 = load ptr, ptr %18, align 8
  %20 = tail call noundef i32 %19(ptr noundef nonnull align 8 dereferenceable(16) %14, i32 noundef %16)
  br label %21

21:                                               ; preds = %15, %12
  %.2 = phi i32 [ %20, %15 ], [ %.1, %12 ]
  %22 = icmp sgt i64 %indvars.iv, 1
  br i1 %22, label %12, label %23, !llvm.loop !60

23:                                               ; preds = %21
  store i32 %.2, ptr %3, align 4, !tbaa !21
  br label %24

24:                                               ; preds = %23, %2
  %.0 = phi i32 [ %.2, %23 ], [ %1, %2 ]
  ret i32 %.0
}